; Function Attrs: inlinehint mustprogress nounwind optsize uwtable
define internal noundef ptr @"_ZZN8nanobind6detail11func_createILb0ELb0EZNS1_ILb0ELb1EZL32nanobind_init_test_functions_extRNS_7module_EE4$_23iJETpTnmJEJNS_5scopeENS_4nameENS_10call_guardIJ13my_call_guardEEEEEEP7_objectOT1_PFT2_DpT3_ESt16integer_sequenceImJXspT4_EEEDpRKT5_EUlvE_iJETpTnmJEJS5_S6_S9_EEESB_SD_SI_SK_SO_ENUlPvPSB_PhNS_9rv_policyEPNS0_12cleanup_listEE_8__invokeESQ_SR_SS_ST_SV_"(ptr readnone captures(none) %0, ptr readnone captures(none) %1, ptr readnone captures(none) %2, i32 %3, ptr readnone captures(none) %4) #17 align 2 personality ptr @__gxx_personality_v0 {
  store i32 2, ptr @call_guard_value, align 4, !tbaa !36
  %6 = invoke ptr @PyLong_FromLong(i64 noundef 1) #28
          to label %"_ZZN8nanobind6detail11func_createILb0ELb0EZNS1_ILb0ELb1EZL32nanobind_init_test_functions_extRNS_7module_EE4$_23iJETpTnmJEJNS_5scopeENS_4nameENS_10call_guardIJ13my_call_guardEEEEEEP7_objectOT1_PFT2_DpT3_ESt16integer_sequenceImJXspT4_EEEDpRKT5_EUlvE_iJETpTnmJEJS5_S6_S9_EEESB_SD_SI_SK_SO_ENKUlPvPSB_PhNS_9rv_policyEPNS0_12cleanup_listEE_clESQ_SR_SS_ST_SV_.exit" unwind label %7

7:                                                ; preds = %5
  %8 = landingpad { ptr, i32 }
          catch ptr null
  %9 = extractvalue { ptr, i32 } %8, 0
  tail call void @__clang_call_terminate(ptr %9) #30
  unreachable

"_ZZN8nanobind6detail11func_createILb0ELb0EZNS1_ILb0ELb1EZL32nanobind_init_test_functions_extRNS_7module_EE4$_23iJETpTnmJEJNS_5scopeENS_4nameENS_10call_guardIJ13my_call_guardEEEEEEP7_objectOT1_PFT2_DpT3_ESt16integer_sequenceImJXspT4_EEEDpRKT5_EUlvE_iJETpTnmJEJS5_S6_S9_EEESB_SD_SI_SK_SO_ENKUlPvPSB_PhNS_9rv_policyEPNS0_12cleanup_listEE_clESQ_SR_SS_ST_SV_.exit": ; preds = %5
  ret ptr %6
}